---
triple:          'x86_64-apple-darwin'
binary-path:     checkers
relocations:
  - { offsetInCU: 0x61DD, offset: 0x61DD, size: 0x8, addend: 0x0, symName: __ZNSt3__124__put_character_sequenceB8ue170006IcNS_11char_traitsIcEEEERNS_13basic_ostreamIT_T0_EES7_PKS4_m, symObjAddr: 0x54D0, symBinAddr: 0x100005D80, symSize: 0x1F0 }
  - { offsetInCU: 0x7D3D, offset: 0x7D3D, size: 0x8, addend: 0x0, symName: __ZNSt3__1lsB8ue170006INS_11char_traitsIcEEEERNS_13basic_ostreamIcT_EES6_PKc, symObjAddr: 0x4A0, symBinAddr: 0x100000D50, symSize: 0x40 }
  - { offsetInCU: 0x7D83, offset: 0x7D83, size: 0x8, addend: 0x0, symName: __ZNSt3__14endlB8ue170006IcNS_11char_traitsIcEEEERNS_13basic_ostreamIT_T0_EES7_, symObjAddr: 0x500, symBinAddr: 0x100000DB0, symSize: 0x50 }
  - { offsetInCU: 0x7DC3, offset: 0x7DC3, size: 0x8, addend: 0x0, symName: __ZNSt3__1lsB8ue170006INS_11char_traitsIcEEEERNS_13basic_ostreamIcT_EES6_c, symObjAddr: 0x550, symBinAddr: 0x100000E00, symSize: 0x30 }
  - { offsetInCU: 0x7E09, offset: 0x7E09, size: 0x8, addend: 0x0, symName: __ZNSt3__1lsB8ue170006IcNS_11char_traitsIcEENS_9allocatorIcEEEERNS_13basic_ostreamIT_T0_EES9_RKNS_12basic_stringIS6_S7_T1_EE, symObjAddr: 0x17A0, symBinAddr: 0x100002050, symSize: 0x50 }
  - { offsetInCU: 0x7E61, offset: 0x7E61, size: 0x8, addend: 0x0, symName: __ZNSt3__112__to_addressB8ue170006INS_6vectorIcNS_9allocatorIcEEEEEEPT_S6_, symObjAddr: 0x1CB0, symBinAddr: 0x100002560, symSize: 0x10 }
  - { offsetInCU: 0x7E96, offset: 0x7E96, size: 0x8, addend: 0x0, symName: __ZNSt3__112__to_addressB8ue170006IcEEPT_S2_, symObjAddr: 0x2000, symBinAddr: 0x1000028B0, symSize: 0x10 }
  - { offsetInCU: 0x7ECB, offset: 0x7ECB, size: 0x8, addend: 0x0, symName: __ZNSt3__119__libcpp_deallocateB8ue170006EPvmm, symObjAddr: 0x20C0, symBinAddr: 0x100002970, symSize: 0x30 }
  - { offsetInCU: 0x7F13, offset: 0x7F13, size: 0x8, addend: 0x0, symName: __ZNSt3__127__do_deallocate_handle_sizeB8ue170006IJEEEvPvmDpT_, symObjAddr: 0x20F0, symBinAddr: 0x1000029A0, symSize: 0x20 }
  - { offsetInCU: 0x7F51, offset: 0x7F51, size: 0x8, addend: 0x0, symName: __ZNSt3__124__libcpp_operator_deleteB8ue170006IJPvEEEvDpT_, symObjAddr: 0x2110, symBinAddr: 0x1000029C0, symSize: 0x20 }
  - { offsetInCU: 0x7F86, offset: 0x7F86, size: 0x8, addend: 0x0, symName: __ZNSt3__13maxB8ue170006ImEERKT_S3_S3_, symObjAddr: 0x2AF0, symBinAddr: 0x1000033A0, symSize: 0x30 }
  - { offsetInCU: 0x7FC9, offset: 0x7FC9, size: 0x8, addend: 0x0, symName: __ZNSt3__13minB8ue170006ImEERKT_S3_S3_, symObjAddr: 0x2B20, symBinAddr: 0x1000033D0, symSize: 0x30 }
  - { offsetInCU: 0x820D, offset: 0x820D, size: 0x8, addend: 0x0, symName: __ZNSt3__13minB8ue170006ImNS_6__lessIvvEEEERKT_S5_S5_T0_, symObjAddr: 0x2BA0, symBinAddr: 0x100003450, symSize: 0x50 }
  - { offsetInCU: 0x82AC, offset: 0x82AC, size: 0x8, addend: 0x0, symName: __ZNSt3__120__throw_length_errorB8ue170006EPKc, symObjAddr: 0x2C80, symBinAddr: 0x100003530, symSize: 0x70 }
  - { offsetInCU: 0x82D6, offset: 0x82D6, size: 0x8, addend: 0x0, symName: __ZNSt3__13maxB8ue170006ImNS_6__lessIvvEEEERKT_S5_S5_T0_, symObjAddr: 0x2D60, symBinAddr: 0x100003610, symSize: 0x50 }
  - { offsetInCU: 0x8330, offset: 0x8330, size: 0x8, addend: 0x0, symName: __ZNSt3__119__allocate_at_leastB8ue170006INS_9allocatorINS_6vectorIcNS1_IcEEEEEEEENS_19__allocation_resultINS_16allocator_traitsIT_E7pointerEEERS8_m, symObjAddr: 0x2EA0, symBinAddr: 0x100003750, symSize: 0x40 }
  - { offsetInCU: 0x8373, offset: 0x8373, size: 0x8, addend: 0x0, symName: __ZNSt3__117__libcpp_allocateB8ue170006Emm, symObjAddr: 0x3010, symBinAddr: 0x1000038C0, symSize: 0x20 }
  - { offsetInCU: 0x83B0, offset: 0x83B0, size: 0x8, addend: 0x0, symName: __ZNSt3__121__libcpp_operator_newB8ue170006IJmEEEPvDpT_, symObjAddr: 0x3030, symBinAddr: 0x1000038E0, symSize: 0x20 }
  - { offsetInCU: 0x83E9, offset: 0x83E9, size: 0x8, addend: 0x0, symName: __ZNSt3__142__uninitialized_allocator_move_if_noexceptB8ue170006INS_9allocatorINS_6vectorIcNS1_IcEEEEEENS_16reverse_iteratorIPS4_EES8_S8_EET2_RT_T0_T1_S9_, symObjAddr: 0x3160, symBinAddr: 0x100003A10, symSize: 0x180 }
  - { offsetInCU: 0x8488, offset: 0x8488, size: 0x8, addend: 0x0, symName: __ZNSt3__14swapB8ue170006IPNS_6vectorIcNS_9allocatorIcEEEEEENS_9enable_ifIXaasr21is_move_constructibleIT_EE5valuesr18is_move_assignableIS7_EE5valueEvE4typeERS7_SA_, symObjAddr: 0x3330, symBinAddr: 0x100003BE0, symSize: 0x40 }
  - { offsetInCU: 0x84D9, offset: 0x84D9, size: 0x8, addend: 0x0, symName: __ZNSt3__122__make_exception_guardB8ue170006INS_29_AllocatorDestroyRangeReverseINS_9allocatorINS_6vectorIcNS2_IcEEEEEENS_16reverse_iteratorIPS5_EEEEEENS_28__exception_guard_exceptionsIT_EESC_, symObjAddr: 0x3410, symBinAddr: 0x100003CC0, symSize: 0x60 }
  - { offsetInCU: 0x850E, offset: 0x850E, size: 0x8, addend: 0x0, symName: __ZNSt3__1neB8ue170006IPNS_6vectorIcNS_9allocatorIcEEEES5_EEbRKNS_16reverse_iteratorIT_EERKNS6_IT0_EE, symObjAddr: 0x34B0, symBinAddr: 0x100003D60, symSize: 0x40 }
  - { offsetInCU: 0x855A, offset: 0x855A, size: 0x8, addend: 0x0, symName: __ZNSt3__112__to_addressB8ue170006INS_16reverse_iteratorIPNS_6vectorIcNS_9allocatorIcEEEEEEvEEu7__decayIDTclsr19__to_address_helperIT_EE6__callclsr3stdE7declvalIRKS8_EEEEESA_, symObjAddr: 0x3520, symBinAddr: 0x100003DD0, symSize: 0x20 }
  - { offsetInCU: 0x85B9, offset: 0x85B9, size: 0x8, addend: 0x0, symName: __ZNSt3__119__allocator_destroyB8ue170006INS_9allocatorINS_6vectorIcNS1_IcEEEEEENS_16reverse_iteratorINS6_IPS4_EEEES9_EEvRT_T0_T1_, symObjAddr: 0x3A10, symBinAddr: 0x1000042C0, symSize: 0x70 }
  - { offsetInCU: 0x861C, offset: 0x861C, size: 0x8, addend: 0x0, symName: __ZNSt3__1neB8ue170006INS_16reverse_iteratorIPNS_6vectorIcNS_9allocatorIcEEEEEES7_EEbRKNS1_IT_EERKNS1_IT0_EE, symObjAddr: 0x3AB0, symBinAddr: 0x100004360, symSize: 0x50 }
  - { offsetInCU: 0x8668, offset: 0x8668, size: 0x8, addend: 0x0, symName: __ZNSt3__112__to_addressB8ue170006INS_16reverse_iteratorINS1_IPNS_6vectorIcNS_9allocatorIcEEEEEEEEvEEu7__decayIDTclsr19__to_address_helperIT_EE6__callclsr3stdE7declvalIRKS9_EEEEESB_, symObjAddr: 0x3B00, symBinAddr: 0x1000043B0, symSize: 0x20 }
  - { offsetInCU: 0x86C7, offset: 0x86C7, size: 0x8, addend: 0x0, symName: __ZNSt3__119__allocate_at_leastB8ue170006INS_9allocatorIcEEEENS_19__allocation_resultINS_16allocator_traitsIT_E7pointerEEERS5_m, symObjAddr: 0x46E0, symBinAddr: 0x100004F90, symSize: 0x40 }
  - { offsetInCU: 0x870A, offset: 0x870A, size: 0x8, addend: 0x0, symName: __ZNSt3__142__uninitialized_allocator_move_if_noexceptB8ue170006INS_9allocatorIcEENS_16reverse_iteratorIPcEES5_cvEET1_RT_T0_S9_S6_, symObjAddr: 0x4920, symBinAddr: 0x1000051D0, symSize: 0x70 }
  - { offsetInCU: 0x8786, offset: 0x8786, size: 0x8, addend: 0x0, symName: __ZNSt3__14swapB8ue170006IPcEENS_9enable_ifIXaasr21is_move_constructibleIT_EE5valuesr18is_move_assignableIS3_EE5valueEvE4typeERS3_S6_, symObjAddr: 0x49E0, symBinAddr: 0x100005290, symSize: 0x40 }
  - { offsetInCU: 0x87D7, offset: 0x87D7, size: 0x8, addend: 0x0, symName: __ZNSt3__14moveB8ue170006INS_16reverse_iteratorIPcEES3_EET0_T_S5_S4_, symObjAddr: 0x4AC0, symBinAddr: 0x100005370, symSize: 0x80 }
  - { offsetInCU: 0x8831, offset: 0x8831, size: 0x8, addend: 0x0, symName: __ZNSt3__16__moveB8ue170006INS_17_ClassicAlgPolicyENS_16reverse_iteratorIPcEES4_S4_EENS_4pairIT0_T2_EES6_T1_S7_, symObjAddr: 0x4B40, symBinAddr: 0x1000053F0, symSize: 0x90 }
  - { offsetInCU: 0x889D, offset: 0x889D, size: 0x8, addend: 0x0, symName: __ZNSt3__123__dispatch_copy_or_moveB8ue170006INS_17_ClassicAlgPolicyENS_11__move_loopIS1_EENS_14__move_trivialENS_16reverse_iteratorIPcEES7_S7_EENS_4pairIT2_T4_EES9_T3_SA_, symObjAddr: 0x4BD0, symBinAddr: 0x100005480, symSize: 0x90 }
  - { offsetInCU: 0x891B, offset: 0x891B, size: 0x8, addend: 0x0, symName: __ZNSt3__121__unwrap_and_dispatchB8ue170006INS_10__overloadINS_11__move_loopINS_17_ClassicAlgPolicyEEENS_14__move_trivialEEENS_16reverse_iteratorIPcEES9_S9_Li0EEENS_4pairIT0_T2_EESB_T1_SC_, symObjAddr: 0x4C60, symBinAddr: 0x100005510, symSize: 0x210 }
  - { offsetInCU: 0x89AA, offset: 0x89AA, size: 0x8, addend: 0x0, symName: __ZNSt3__114__unwrap_rangeB8ue170006INS_16reverse_iteratorIPcEES3_EENS_4pairIT0_S5_EET_S7_, symObjAddr: 0x4E70, symBinAddr: 0x100005720, symSize: 0x90 }
  - { offsetInCU: 0x8B25, offset: 0x8B25, size: 0x8, addend: 0x0, symName: __ZNSt3__113__unwrap_iterB8ue170006INS_16reverse_iteratorIPcEENS_18__unwrap_iter_implIS3_Lb0EEELi0EEEDTclsrT0_8__unwrapclsr3stdE7declvalIT_EEEES7_, symObjAddr: 0x4FA0, symBinAddr: 0x100005850, symSize: 0x40 }
  - { offsetInCU: 0x8B69, offset: 0x8B69, size: 0x8, addend: 0x0, symName: __ZNSt3__19make_pairB8ue170006INS_16reverse_iteratorIPcEES3_EENS_4pairINS_18__unwrap_ref_decayIT_E4typeENS5_IT0_E4typeEEEOS6_OS9_, symObjAddr: 0x4FE0, symBinAddr: 0x100005890, symSize: 0x30 }
  - { offsetInCU: 0x8BB8, offset: 0x8BB8, size: 0x8, addend: 0x0, symName: __ZNSt3__114__rewrap_rangeB8ue170006INS_16reverse_iteratorIPcEES3_EET_S4_T0_, symObjAddr: 0x5010, symBinAddr: 0x1000058C0, symSize: 0x60 }
  - { offsetInCU: 0x8C04, offset: 0x8C04, size: 0x8, addend: 0x0, symName: __ZNSt3__113__rewrap_iterB8ue170006INS_16reverse_iteratorIPcEES3_NS_18__unwrap_iter_implIS3_Lb0EEEEET_S6_T0_, symObjAddr: 0x5070, symBinAddr: 0x100005920, symSize: 0x70 }
  - { offsetInCU: 0x8C59, offset: 0x8C59, size: 0x8, addend: 0x0, symName: __ZNSt3__1neB8ue170006IPcS1_EEbRKNS_16reverse_iteratorIT_EERKNS2_IT0_EE, symObjAddr: 0x50E0, symBinAddr: 0x100005990, symSize: 0x40 }
  - { offsetInCU: 0x8D57, offset: 0x8D57, size: 0x8, addend: 0x0, symName: __ZNSt3__116__pad_and_outputB8ue170006IcNS_11char_traitsIcEEEENS_19ostreambuf_iteratorIT_T0_EES6_PKS4_S8_S8_RNS_8ios_baseES4_, symObjAddr: 0x5710, symBinAddr: 0x100005FC0, symSize: 0x220 }
  - { offsetInCU: 0x8E27, offset: 0x8E27, size: 0x8, addend: 0x0, symName: __ZNSt3__112__to_addressB8ue170006IKcEEPT_S3_, symObjAddr: 0x5BE0, symBinAddr: 0x100006490, symSize: 0x10 }
  - { offsetInCU: 0x8E8F, offset: 0x8E8F, size: 0x8, addend: 0x0, symName: __ZNSt3__19use_facetB8ue170006INS_5ctypeIcEEEERKT_RKNS_6localeE, symObjAddr: 0x5E40, symBinAddr: 0x1000066F0, symSize: 0x30 }
  - { offsetInCU: 0x935C, offset: 0x935C, size: 0x8, addend: 0x0, symName: __ZNSt3__118__constexpr_strlenB8ue170006EPKc, symObjAddr: 0x5ED0, symBinAddr: 0x100006780, symSize: 0x20 }
  - { offsetInCU: 0x9653, offset: 0x9653, size: 0x8, addend: 0x0, symName: __ZSt28__throw_bad_array_new_lengthB8ue170006v, symObjAddr: 0x2FD0, symBinAddr: 0x100003880, symSize: 0x40 }
  - { offsetInCU: 0x9C02, offset: 0x9C02, size: 0x8, addend: 0x0, symName: __ZNSt3__16vectorINS0_IcNS_9allocatorIcEEEENS1_IS3_EEE26__swap_out_circular_bufferERNS_14__split_bufferIS3_RS4_EE, symObjAddr: 0x26B0, symBinAddr: 0x100002F60, symSize: 0x120 }
  - { offsetInCU: 0x9C93, offset: 0x9C93, size: 0x8, addend: 0x0, symName: __ZNSt3__16vectorIcNS_9allocatorIcEEE26__swap_out_circular_bufferERNS_14__split_bufferIcRS2_EE, symObjAddr: 0x42A0, symBinAddr: 0x100004B50, symSize: 0x120 }
  - { offsetInCU: 0xA3EE, offset: 0xA3EE, size: 0x8, addend: 0x0, symName: __Z7toloweri, symObjAddr: 0xF50, symBinAddr: 0x100001800, symSize: 0x20 }
  - { offsetInCU: 0xC1FA, offset: 0xC1FA, size: 0x8, addend: 0x0, symName: __ZN8CheckersC2Ev, symObjAddr: 0x0, symBinAddr: 0x1000008B0, symSize: 0x150 }
  - { offsetInCU: 0xC27C, offset: 0xC27C, size: 0x8, addend: 0x0, symName: __ZNSt3__16vectorINS0_IcNS_9allocatorIcEEEENS1_IS3_EEEC1B8ue170006Ev, symObjAddr: 0x150, symBinAddr: 0x100000A00, symSize: 0x20 }
  - { offsetInCU: 0xC2A4, offset: 0xC2A4, size: 0x8, addend: 0x0, symName: __ZNSt3__16vectorINS0_IcNS_9allocatorIcEEEENS1_IS3_EEE6resizeEm, symObjAddr: 0x170, symBinAddr: 0x100000A20, symSize: 0x80 }
  - { offsetInCU: 0xC2E8, offset: 0xC2E8, size: 0x8, addend: 0x0, symName: __ZNSt3__16vectorINS0_IcNS_9allocatorIcEEEENS1_IS3_EEEixB8ue170006Em, symObjAddr: 0x1F0, symBinAddr: 0x100000AA0, symSize: 0x20 }
  - { offsetInCU: 0xC31D, offset: 0xC31D, size: 0x8, addend: 0x0, symName: __ZNSt3__16vectorIcNS_9allocatorIcEEE6resizeEmRKc, symObjAddr: 0x210, symBinAddr: 0x100000AC0, symSize: 0x80 }
  - { offsetInCU: 0xC370, offset: 0xC370, size: 0x8, addend: 0x0, symName: __ZNSt3__16vectorIcNS_9allocatorIcEEEixB8ue170006Em, symObjAddr: 0x290, symBinAddr: 0x100000B40, symSize: 0x20 }
  - { offsetInCU: 0xC3A6, offset: 0xC3A6, size: 0x8, addend: 0x0, symName: __ZNSt3__16vectorINS0_IcNS_9allocatorIcEEEENS1_IS3_EEED1B8ue170006Ev, symObjAddr: 0x2B0, symBinAddr: 0x100000B60, symSize: 0x20 }
  - { offsetInCU: 0xC3CF, offset: 0xC3CF, size: 0x8, addend: 0x0, symName: __ZN8CheckersC1Ev, symObjAddr: 0x2D0, symBinAddr: 0x100000B80, symSize: 0x20 }
  - { offsetInCU: 0xC3FA, offset: 0xC3FA, size: 0x8, addend: 0x0, symName: __ZN8CheckersD2Ev, symObjAddr: 0x2F0, symBinAddr: 0x100000BA0, symSize: 0x20 }
  - { offsetInCU: 0xC425, offset: 0xC425, size: 0x8, addend: 0x0, symName: __ZN8CheckersD1Ev, symObjAddr: 0x310, symBinAddr: 0x100000BC0, symSize: 0x20 }
  - { offsetInCU: 0xC450, offset: 0xC450, size: 0x8, addend: 0x0, symName: __ZN8Checkers10printBoardEv, symObjAddr: 0x330, symBinAddr: 0x100000BE0, symSize: 0x170 }
  - { offsetInCU: 0xC4EB, offset: 0xC4EB, size: 0x8, addend: 0x0, symName: __ZNSt3__113basic_ostreamIcNS_11char_traitsIcEEElsB8ue170006EPFRS3_S4_E, symObjAddr: 0x4E0, symBinAddr: 0x100000D90, symSize: 0x20 }
  - { offsetInCU: 0xC51E, offset: 0xC51E, size: 0x8, addend: 0x0, symName: __ZN8Checkers14isWithinBoundsEii, symObjAddr: 0x580, symBinAddr: 0x100000E30, symSize: 0x50 }
  - { offsetInCU: 0xC561, offset: 0xC561, size: 0x8, addend: 0x0, symName: __ZN8Checkers11isValidMoveEPiS0_c, symObjAddr: 0x5D0, symBinAddr: 0x100000E80, symSize: 0x610 }
  - { offsetInCU: 0xC5EC, offset: 0xC5EC, size: 0x8, addend: 0x0, symName: __ZN8Checkers13canDoubleJumpEiic, symObjAddr: 0xBE0, symBinAddr: 0x100001490, symSize: 0x1C0 }
  - { offsetInCU: 0xC6D9, offset: 0xC6D9, size: 0x8, addend: 0x0, symName: __ZN8Checkers6hasWonEv, symObjAddr: 0xDA0, symBinAddr: 0x100001650, symSize: 0x1B0 }
  - { offsetInCU: 0xC756, offset: 0xC756, size: 0x8, addend: 0x0, symName: __ZN8Checkers4playEv, symObjAddr: 0xF70, symBinAddr: 0x100001820, symSize: 0x800 }
  - { offsetInCU: 0xC859, offset: 0xC859, size: 0x8, addend: 0x0, symName: __ZNSt3__112basic_stringIcNS_11char_traitsIcEENS_9allocatorIcEEEC1B8ue170006ILi0EEEPKc, symObjAddr: 0x1770, symBinAddr: 0x100002020, symSize: 0x30 }
  - { offsetInCU: 0xC897, offset: 0xC897, size: 0x8, addend: 0x0, symName: _main, symObjAddr: 0x17F0, symBinAddr: 0x1000020A0, symSize: 0x60 }
  - { offsetInCU: 0xC8C2, offset: 0xC8C2, size: 0x8, addend: 0x0, symName: __ZNSt3__16vectorINS0_IcNS_9allocatorIcEEEENS1_IS3_EEEC2B8ue170006Ev, symObjAddr: 0x1850, symBinAddr: 0x100002100, symSize: 0x50 }
  - { offsetInCU: 0xC8F5, offset: 0xC8F5, size: 0x8, addend: 0x0, symName: __ZNSt3__117__compressed_pairIPNS_6vectorIcNS_9allocatorIcEEEENS2_IS4_EEEC1B8ue170006IDnNS_18__default_init_tagEEEOT_OT0_, symObjAddr: 0x18A0, symBinAddr: 0x100002150, symSize: 0x30 }
  - { offsetInCU: 0xC94C, offset: 0xC94C, size: 0x8, addend: 0x0, symName: __ZNSt3__117__compressed_pairIPNS_6vectorIcNS_9allocatorIcEEEENS2_IS4_EEEC2B8ue170006IDnNS_18__default_init_tagEEEOT_OT0_, symObjAddr: 0x18E0, symBinAddr: 0x100002190, symSize: 0x40 }
  - { offsetInCU: 0xC9A3, offset: 0xC9A3, size: 0x8, addend: 0x0, symName: __ZNSt3__122__compressed_pair_elemIPNS_6vectorIcNS_9allocatorIcEEEELi0ELb0EEC2B8ue170006IDnvEEOT_, symObjAddr: 0x1920, symBinAddr: 0x1000021D0, symSize: 0x20 }
  - { offsetInCU: 0xC9E4, offset: 0xC9E4, size: 0x8, addend: 0x0, symName: __ZNSt3__122__compressed_pair_elemINS_9allocatorINS_6vectorIcNS1_IcEEEEEELi1ELb1EEC2B8ue170006ENS_18__default_init_tagE, symObjAddr: 0x1940, symBinAddr: 0x1000021F0, symSize: 0x20 }
  - { offsetInCU: 0xCA18, offset: 0xCA18, size: 0x8, addend: 0x0, symName: __ZNSt3__19allocatorINS_6vectorIcNS0_IcEEEEEC2B8ue170006Ev, symObjAddr: 0x1960, symBinAddr: 0x100002210, symSize: 0x20 }
  - { offsetInCU: 0xCA41, offset: 0xCA41, size: 0x8, addend: 0x0, symName: __ZNSt3__116__non_trivial_ifILb1ENS_9allocatorINS_6vectorIcNS1_IcEEEEEEEC2B8ue170006Ev, symObjAddr: 0x1980, symBinAddr: 0x100002230, symSize: 0x10 }
  - { offsetInCU: 0xCA6A, offset: 0xCA6A, size: 0x8, addend: 0x0, symName: __ZNSt3__16vectorINS0_IcNS_9allocatorIcEEEENS1_IS3_EEED2B8ue170006Ev, symObjAddr: 0x1990, symBinAddr: 0x100002240, symSize: 0x40 }
  - { offsetInCU: 0xCA93, offset: 0xCA93, size: 0x8, addend: 0x0, symName: __ZNSt3__16vectorINS0_IcNS_9allocatorIcEEEENS1_IS3_EEE16__destroy_vectorC1B8ue170006ERS5_, symObjAddr: 0x19D0, symBinAddr: 0x100002280, symSize: 0x30 }
  - { offsetInCU: 0xCACB, offset: 0xCACB, size: 0x8, addend: 0x0, symName: __ZNSt3__16vectorINS0_IcNS_9allocatorIcEEEENS1_IS3_EEE16__destroy_vectorclB8ue170006Ev, symObjAddr: 0x1A00, symBinAddr: 0x1000022B0, symSize: 0x80 }
  - { offsetInCU: 0xCAF0, offset: 0xCAF0, size: 0x8, addend: 0x0, symName: __ZNSt3__16vectorINS0_IcNS_9allocatorIcEEEENS1_IS3_EEE16__destroy_vectorC2B8ue170006ERS5_, symObjAddr: 0x1A80, symBinAddr: 0x100002330, symSize: 0x20 }
  - { offsetInCU: 0xCB28, offset: 0xCB28, size: 0x8, addend: 0x0, symName: __ZNSt3__16vectorINS0_IcNS_9allocatorIcEEEENS1_IS3_EEE7__clearB8ue170006Ev, symObjAddr: 0x1AA0, symBinAddr: 0x100002350, symSize: 0x20 }
  - { offsetInCU: 0xCB4D, offset: 0xCB4D, size: 0x8, addend: 0x0, symName: __ZNKSt3__16vectorINS0_IcNS_9allocatorIcEEEENS1_IS3_EEE17__annotate_deleteB8ue170006Ev, symObjAddr: 0x1AC0, symBinAddr: 0x100002370, symSize: 0xB0 }
  - { offsetInCU: 0xCB72, offset: 0xCB72, size: 0x8, addend: 0x0, symName: __ZNSt3__116allocator_traitsINS_9allocatorINS_6vectorIcNS1_IcEEEEEEE10deallocateB8ue170006ERS5_PS4_m, symObjAddr: 0x1B70, symBinAddr: 0x100002420, symSize: 0x30 }
  - { offsetInCU: 0xCBB4, offset: 0xCBB4, size: 0x8, addend: 0x0, symName: __ZNSt3__16vectorINS0_IcNS_9allocatorIcEEEENS1_IS3_EEE7__allocB8ue170006Ev, symObjAddr: 0x1BA0, symBinAddr: 0x100002450, symSize: 0x20 }
  - { offsetInCU: 0xCBD9, offset: 0xCBD9, size: 0x8, addend: 0x0, symName: __ZNKSt3__16vectorINS0_IcNS_9allocatorIcEEEENS1_IS3_EEE8capacityB8ue170006Ev, symObjAddr: 0x1BC0, symBinAddr: 0x100002470, symSize: 0x40 }
  - { offsetInCU: 0xCBFE, offset: 0xCBFE, size: 0x8, addend: 0x0, symName: __ZNSt3__16vectorINS0_IcNS_9allocatorIcEEEENS1_IS3_EEE22__base_destruct_at_endB8ue170006EPS3_, symObjAddr: 0x1C00, symBinAddr: 0x1000024B0, symSize: 0x80 }
  - { offsetInCU: 0xCC41, offset: 0xCC41, size: 0x8, addend: 0x0, symName: __ZNSt3__116allocator_traitsINS_9allocatorINS_6vectorIcNS1_IcEEEEEEE7destroyB8ue170006IS4_vEEvRS5_PT_, symObjAddr: 0x1C80, symBinAddr: 0x100002530, symSize: 0x30 }
  - { offsetInCU: 0xCC7E, offset: 0xCC7E, size: 0x8, addend: 0x0, symName: __ZNSt3__19allocatorINS_6vectorIcNS0_IcEEEEE7destroyB8ue170006EPS3_, symObjAddr: 0x1CC0, symBinAddr: 0x100002570, symSize: 0x20 }
  - { offsetInCU: 0xCCB1, offset: 0xCCB1, size: 0x8, addend: 0x0, symName: __ZNSt3__16vectorIcNS_9allocatorIcEEED1B8ue170006Ev, symObjAddr: 0x1CE0, symBinAddr: 0x100002590, symSize: 0x20 }
  - { offsetInCU: 0xCCDA, offset: 0xCCDA, size: 0x8, addend: 0x0, symName: __ZNSt3__16vectorIcNS_9allocatorIcEEED2B8ue170006Ev, symObjAddr: 0x1D00, symBinAddr: 0x1000025B0, symSize: 0x40 }
  - { offsetInCU: 0xCD03, offset: 0xCD03, size: 0x8, addend: 0x0, symName: __ZNSt3__16vectorIcNS_9allocatorIcEEE16__destroy_vectorC1B8ue170006ERS3_, symObjAddr: 0x1D40, symBinAddr: 0x1000025F0, symSize: 0x30 }
  - { offsetInCU: 0xCD3B, offset: 0xCD3B, size: 0x8, addend: 0x0, symName: __ZNSt3__16vectorIcNS_9allocatorIcEEE16__destroy_vectorclB8ue170006Ev, symObjAddr: 0x1D70, symBinAddr: 0x100002620, symSize: 0x80 }
  - { offsetInCU: 0xCD60, offset: 0xCD60, size: 0x8, addend: 0x0, symName: __ZNSt3__16vectorIcNS_9allocatorIcEEE16__destroy_vectorC2B8ue170006ERS3_, symObjAddr: 0x1DF0, symBinAddr: 0x1000026A0, symSize: 0x20 }
  - { offsetInCU: 0xCD98, offset: 0xCD98, size: 0x8, addend: 0x0, symName: __ZNSt3__16vectorIcNS_9allocatorIcEEE7__clearB8ue170006Ev, symObjAddr: 0x1E10, symBinAddr: 0x1000026C0, symSize: 0x20 }
  - { offsetInCU: 0xCDBD, offset: 0xCDBD, size: 0x8, addend: 0x0, symName: __ZNKSt3__16vectorIcNS_9allocatorIcEEE17__annotate_deleteB8ue170006Ev, symObjAddr: 0x1E30, symBinAddr: 0x1000026E0, symSize: 0xA0 }
  - { offsetInCU: 0xCDE2, offset: 0xCDE2, size: 0x8, addend: 0x0, symName: __ZNSt3__116allocator_traitsINS_9allocatorIcEEE10deallocateB8ue170006ERS2_Pcm, symObjAddr: 0x1ED0, symBinAddr: 0x100002780, symSize: 0x30 }
  - { offsetInCU: 0xCE24, offset: 0xCE24, size: 0x8, addend: 0x0, symName: __ZNSt3__16vectorIcNS_9allocatorIcEEE7__allocB8ue170006Ev, symObjAddr: 0x1F00, symBinAddr: 0x1000027B0, symSize: 0x20 }
  - { offsetInCU: 0xCE49, offset: 0xCE49, size: 0x8, addend: 0x0, symName: __ZNKSt3__16vectorIcNS_9allocatorIcEEE8capacityB8ue170006Ev, symObjAddr: 0x1F20, symBinAddr: 0x1000027D0, symSize: 0x30 }
  - { offsetInCU: 0xCE6E, offset: 0xCE6E, size: 0x8, addend: 0x0, symName: __ZNSt3__16vectorIcNS_9allocatorIcEEE22__base_destruct_at_endB8ue170006EPc, symObjAddr: 0x1F50, symBinAddr: 0x100002800, symSize: 0x80 }
  - { offsetInCU: 0xCEB1, offset: 0xCEB1, size: 0x8, addend: 0x0, symName: __ZNSt3__116allocator_traitsINS_9allocatorIcEEE7destroyB8ue170006IcvEEvRS2_PT_, symObjAddr: 0x1FD0, symBinAddr: 0x100002880, symSize: 0x30 }
  - { offsetInCU: 0xCEEE, offset: 0xCEEE, size: 0x8, addend: 0x0, symName: __ZNSt3__19allocatorIcE7destroyB8ue170006EPc, symObjAddr: 0x2010, symBinAddr: 0x1000028C0, symSize: 0x10 }
  - { offsetInCU: 0xCF21, offset: 0xCF21, size: 0x8, addend: 0x0, symName: __ZNKSt3__16vectorIcNS_9allocatorIcEEE31__annotate_contiguous_containerB8ue170006EPKvS5_S5_S5_, symObjAddr: 0x2020, symBinAddr: 0x1000028D0, symSize: 0x20 }
  - { offsetInCU: 0xCF72, offset: 0xCF72, size: 0x8, addend: 0x0, symName: __ZNKSt3__16vectorIcNS_9allocatorIcEEE4dataB8ue170006Ev, symObjAddr: 0x2040, symBinAddr: 0x1000028F0, symSize: 0x20 }
  - { offsetInCU: 0xCF97, offset: 0xCF97, size: 0x8, addend: 0x0, symName: __ZNKSt3__16vectorIcNS_9allocatorIcEEE4sizeB8ue170006Ev, symObjAddr: 0x2060, symBinAddr: 0x100002910, symSize: 0x20 }
  - { offsetInCU: 0xCFBC, offset: 0xCFBC, size: 0x8, addend: 0x0, symName: __ZNSt3__19allocatorIcE10deallocateB8ue170006EPcm, symObjAddr: 0x2080, symBinAddr: 0x100002930, symSize: 0x40 }
  - { offsetInCU: 0xCFFD, offset: 0xCFFD, size: 0x8, addend: 0x0, symName: __ZNSt3__117__compressed_pairIPcNS_9allocatorIcEEE6secondB8ue170006Ev, symObjAddr: 0x2130, symBinAddr: 0x1000029E0, symSize: 0x20 }
  - { offsetInCU: 0xD022, offset: 0xD022, size: 0x8, addend: 0x0, symName: __ZNSt3__122__compressed_pair_elemINS_9allocatorIcEELi1ELb1EE5__getB8ue170006Ev, symObjAddr: 0x2150, symBinAddr: 0x100002A00, symSize: 0x10 }
  - { offsetInCU: 0xD047, offset: 0xD047, size: 0x8, addend: 0x0, symName: __ZNKSt3__16vectorIcNS_9allocatorIcEEE9__end_capB8ue170006Ev, symObjAddr: 0x2160, symBinAddr: 0x100002A10, symSize: 0x20 }
  - { offsetInCU: 0xD06C, offset: 0xD06C, size: 0x8, addend: 0x0, symName: __ZNKSt3__117__compressed_pairIPcNS_9allocatorIcEEE5firstB8ue170006Ev, symObjAddr: 0x2180, symBinAddr: 0x100002A30, symSize: 0x20 }
  - { offsetInCU: 0xD091, offset: 0xD091, size: 0x8, addend: 0x0, symName: __ZNKSt3__122__compressed_pair_elemIPcLi0ELb0EE5__getB8ue170006Ev, symObjAddr: 0x21A0, symBinAddr: 0x100002A50, symSize: 0x10 }
  - { offsetInCU: 0xD0B6, offset: 0xD0B6, size: 0x8, addend: 0x0, symName: __ZNKSt3__16vectorINS0_IcNS_9allocatorIcEEEENS1_IS3_EEE31__annotate_contiguous_containerB8ue170006EPKvS7_S7_S7_, symObjAddr: 0x21B0, symBinAddr: 0x100002A60, symSize: 0x20 }
  - { offsetInCU: 0xD107, offset: 0xD107, size: 0x8, addend: 0x0, symName: __ZNKSt3__16vectorINS0_IcNS_9allocatorIcEEEENS1_IS3_EEE4dataB8ue170006Ev, symObjAddr: 0x21D0, symBinAddr: 0x100002A80, symSize: 0x20 }
  - { offsetInCU: 0xD12C, offset: 0xD12C, size: 0x8, addend: 0x0, symName: __ZNKSt3__16vectorINS0_IcNS_9allocatorIcEEEENS1_IS3_EEE4sizeB8ue170006Ev, symObjAddr: 0x21F0, symBinAddr: 0x100002AA0, symSize: 0x30 }
  - { offsetInCU: 0xD151, offset: 0xD151, size: 0x8, addend: 0x0, symName: __ZNSt3__19allocatorINS_6vectorIcNS0_IcEEEEE10deallocateB8ue170006EPS3_m, symObjAddr: 0x2220, symBinAddr: 0x100002AD0, symSize: 0x50 }
  - { offsetInCU: 0xD192, offset: 0xD192, size: 0x8, addend: 0x0, symName: __ZNSt3__117__compressed_pairIPNS_6vectorIcNS_9allocatorIcEEEENS2_IS4_EEE6secondB8ue170006Ev, symObjAddr: 0x2270, symBinAddr: 0x100002B20, symSize: 0x20 }
  - { offsetInCU: 0xD1B7, offset: 0xD1B7, size: 0x8, addend: 0x0, symName: __ZNSt3__122__compressed_pair_elemINS_9allocatorINS_6vectorIcNS1_IcEEEEEELi1ELb1EE5__getB8ue170006Ev, symObjAddr: 0x2290, symBinAddr: 0x100002B40, symSize: 0x10 }
  - { offsetInCU: 0xD1DC, offset: 0xD1DC, size: 0x8, addend: 0x0, symName: __ZNKSt3__16vectorINS0_IcNS_9allocatorIcEEEENS1_IS3_EEE9__end_capB8ue170006Ev, symObjAddr: 0x22A0, symBinAddr: 0x100002B50, symSize: 0x20 }
  - { offsetInCU: 0xD201, offset: 0xD201, size: 0x8, addend: 0x0, symName: __ZNKSt3__117__compressed_pairIPNS_6vectorIcNS_9allocatorIcEEEENS2_IS4_EEE5firstB8ue170006Ev, symObjAddr: 0x22C0, symBinAddr: 0x100002B70, symSize: 0x20 }
  - { offsetInCU: 0xD226, offset: 0xD226, size: 0x8, addend: 0x0, symName: __ZNKSt3__122__compressed_pair_elemIPNS_6vectorIcNS_9allocatorIcEEEELi0ELb0EE5__getB8ue170006Ev, symObjAddr: 0x22E0, symBinAddr: 0x100002B90, symSize: 0x10 }
  - { offsetInCU: 0xD24A, offset: 0xD24A, size: 0x8, addend: 0x0, symName: __ZNSt3__16vectorINS0_IcNS_9allocatorIcEEEENS1_IS3_EEE8__appendEm, symObjAddr: 0x22F0, symBinAddr: 0x100002BA0, symSize: 0x100 }
  - { offsetInCU: 0xD2A4, offset: 0xD2A4, size: 0x8, addend: 0x0, symName: __ZNSt3__16vectorINS0_IcNS_9allocatorIcEEEENS1_IS3_EEE17__destruct_at_endB8ue170006EPS3_, symObjAddr: 0x23F0, symBinAddr: 0x100002CA0, symSize: 0x50 }
  - { offsetInCU: 0xD2E7, offset: 0xD2E7, size: 0x8, addend: 0x0, symName: __ZNSt3__16vectorINS0_IcNS_9allocatorIcEEEENS1_IS3_EEE9__end_capB8ue170006Ev, symObjAddr: 0x2440, symBinAddr: 0x100002CF0, symSize: 0x20 }
  - { offsetInCU: 0xD30B, offset: 0xD30B, size: 0x8, addend: 0x0, symName: __ZNSt3__16vectorINS0_IcNS_9allocatorIcEEEENS1_IS3_EEE18__construct_at_endEm, symObjAddr: 0x2460, symBinAddr: 0x100002D10, symSize: 0xC0 }
  - { offsetInCU: 0xD37C, offset: 0xD37C, size: 0x8, addend: 0x0, symName: __ZNKSt3__16vectorINS0_IcNS_9allocatorIcEEEENS1_IS3_EEE11__recommendB8ue170006Em, symObjAddr: 0x2520, symBinAddr: 0x100002DD0, symSize: 0xA0 }
  - { offsetInCU: 0xD3D0, offset: 0xD3D0, size: 0x8, addend: 0x0, symName: __ZNSt3__114__split_bufferINS_6vectorIcNS_9allocatorIcEEEERNS2_IS4_EEEC1EmmS6_, symObjAddr: 0x25C0, symBinAddr: 0x100002E70, symSize: 0x40 }
  - { offsetInCU: 0xD424, offset: 0xD424, size: 0x8, addend: 0x0, symName: __ZNSt3__114__split_bufferINS_6vectorIcNS_9allocatorIcEEEERNS2_IS4_EEE18__construct_at_endEm, symObjAddr: 0x2600, symBinAddr: 0x100002EB0, symSize: 0xB0 }
  - { offsetInCU: 0xD468, offset: 0xD468, size: 0x8, addend: 0x0, symName: __ZNSt3__114__split_bufferINS_6vectorIcNS_9allocatorIcEEEERNS2_IS4_EEED1Ev, symObjAddr: 0x27D0, symBinAddr: 0x100003080, symSize: 0x20 }
  - { offsetInCU: 0xD493, offset: 0xD493, size: 0x8, addend: 0x0, symName: __ZNSt3__117__compressed_pairIPNS_6vectorIcNS_9allocatorIcEEEENS2_IS4_EEE5firstB8ue170006Ev, symObjAddr: 0x27F0, symBinAddr: 0x1000030A0, symSize: 0x20 }
  - { offsetInCU: 0xD4B8, offset: 0xD4B8, size: 0x8, addend: 0x0, symName: __ZNSt3__122__compressed_pair_elemIPNS_6vectorIcNS_9allocatorIcEEEELi0ELb0EE5__getB8ue170006Ev, symObjAddr: 0x2810, symBinAddr: 0x1000030C0, symSize: 0x10 }
  - { offsetInCU: 0xD4F6, offset: 0xD4F6, size: 0x8, addend: 0x0, symName: __ZNSt3__16vectorINS0_IcNS_9allocatorIcEEEENS1_IS3_EEE21_ConstructTransactionC1B8ue170006ERS5_m, symObjAddr: 0x2820, symBinAddr: 0x1000030D0, symSize: 0x30 }
  - { offsetInCU: 0xD53D, offset: 0xD53D, size: 0x8, addend: 0x0, symName: __ZNSt3__116allocator_traitsINS_9allocatorINS_6vectorIcNS1_IcEEEEEEE9constructB8ue170006IS4_JEvEEvRS5_PT_DpOT0_, symObjAddr: 0x2850, symBinAddr: 0x100003100, symSize: 0x30 }
  - { offsetInCU: 0xD57F, offset: 0xD57F, size: 0x8, addend: 0x0, symName: __ZNSt3__16vectorINS0_IcNS_9allocatorIcEEEENS1_IS3_EEE21_ConstructTransactionD1B8ue170006Ev, symObjAddr: 0x2880, symBinAddr: 0x100003130, symSize: 0x20 }
  - { offsetInCU: 0xD5A8, offset: 0xD5A8, size: 0x8, addend: 0x0, symName: __ZNSt3__16vectorINS0_IcNS_9allocatorIcEEEENS1_IS3_EEE21_ConstructTransactionC2B8ue170006ERS5_m, symObjAddr: 0x28A0, symBinAddr: 0x100003150, symSize: 0x40 }
  - { offsetInCU: 0xD5EF, offset: 0xD5EF, size: 0x8, addend: 0x0, symName: __ZNSt3__19allocatorINS_6vectorIcNS0_IcEEEEE9constructB8ue170006IS3_JEEEvPT_DpOT0_, symObjAddr: 0x28E0, symBinAddr: 0x100003190, symSize: 0x20 }
  - { offsetInCU: 0xD630, offset: 0xD630, size: 0x8, addend: 0x0, symName: __ZNSt3__16vectorIcNS_9allocatorIcEEEC1B8ue170006Ev, symObjAddr: 0x2900, symBinAddr: 0x1000031B0, symSize: 0x20 }
  - { offsetInCU: 0xD659, offset: 0xD659, size: 0x8, addend: 0x0, symName: __ZNSt3__16vectorIcNS_9allocatorIcEEEC2B8ue170006Ev, symObjAddr: 0x2920, symBinAddr: 0x1000031D0, symSize: 0x50 }
  - { offsetInCU: 0xD682, offset: 0xD682, size: 0x8, addend: 0x0, symName: __ZNSt3__117__compressed_pairIPcNS_9allocatorIcEEEC1B8ue170006IDnNS_18__default_init_tagEEEOT_OT0_, symObjAddr: 0x2970, symBinAddr: 0x100003220, symSize: 0x30 }
  - { offsetInCU: 0xD6D9, offset: 0xD6D9, size: 0x8, addend: 0x0, symName: __ZNSt3__117__compressed_pairIPcNS_9allocatorIcEEEC2B8ue170006IDnNS_18__default_init_tagEEEOT_OT0_, symObjAddr: 0x29A0, symBinAddr: 0x100003250, symSize: 0x40 }
  - { offsetInCU: 0xD730, offset: 0xD730, size: 0x8, addend: 0x0, symName: __ZNSt3__122__compressed_pair_elemIPcLi0ELb0EEC2B8ue170006IDnvEEOT_, symObjAddr: 0x29E0, symBinAddr: 0x100003290, symSize: 0x20 }
  - { offsetInCU: 0xD771, offset: 0xD771, size: 0x8, addend: 0x0, symName: __ZNSt3__122__compressed_pair_elemINS_9allocatorIcEELi1ELb1EEC2B8ue170006ENS_18__default_init_tagE, symObjAddr: 0x2A00, symBinAddr: 0x1000032B0, symSize: 0x20 }
  - { offsetInCU: 0xD7A5, offset: 0xD7A5, size: 0x8, addend: 0x0, symName: __ZNSt3__19allocatorIcEC2B8ue170006Ev, symObjAddr: 0x2A20, symBinAddr: 0x1000032D0, symSize: 0x20 }
  - { offsetInCU: 0xD7CE, offset: 0xD7CE, size: 0x8, addend: 0x0, symName: __ZNSt3__116__non_trivial_ifILb1ENS_9allocatorIcEEEC2B8ue170006Ev, symObjAddr: 0x2A40, symBinAddr: 0x1000032F0, symSize: 0x10 }
  - { offsetInCU: 0xD7F7, offset: 0xD7F7, size: 0x8, addend: 0x0, symName: __ZNSt3__16vectorINS0_IcNS_9allocatorIcEEEENS1_IS3_EEE21_ConstructTransactionD2B8ue170006Ev, symObjAddr: 0x2A50, symBinAddr: 0x100003300, symSize: 0x20 }
  - { offsetInCU: 0xD81F, offset: 0xD81F, size: 0x8, addend: 0x0, symName: __ZNKSt3__16vectorINS0_IcNS_9allocatorIcEEEENS1_IS3_EEE8max_sizeEv, symObjAddr: 0x2A70, symBinAddr: 0x100003320, symSize: 0x60 }
  - { offsetInCU: 0xD846, offset: 0xD846, size: 0x8, addend: 0x0, symName: __ZNKSt3__16vectorINS0_IcNS_9allocatorIcEEEENS1_IS3_EEE20__throw_length_errorB8ue170006Ev, symObjAddr: 0x2AD0, symBinAddr: 0x100003380, symSize: 0x20 }
  - { offsetInCU: 0xD875, offset: 0xD875, size: 0x8, addend: 0x0, symName: __ZNSt3__116allocator_traitsINS_9allocatorINS_6vectorIcNS1_IcEEEEEEE8max_sizeB8ue170006IS5_vEEmRKS5_, symObjAddr: 0x2B50, symBinAddr: 0x100003400, symSize: 0x20 }
  - { offsetInCU: 0xD8A3, offset: 0xD8A3, size: 0x8, addend: 0x0, symName: __ZNKSt3__16vectorINS0_IcNS_9allocatorIcEEEENS1_IS3_EEE7__allocB8ue170006Ev, symObjAddr: 0x2B70, symBinAddr: 0x100003420, symSize: 0x20 }
  - { offsetInCU: 0xD8C8, offset: 0xD8C8, size: 0x8, addend: 0x0, symName: __ZNSt3__114numeric_limitsIlE3maxB8ue170006Ev, symObjAddr: 0x2B90, symBinAddr: 0x100003440, symSize: 0x10 }
  - { offsetInCU: 0xD8F0, offset: 0xD8F0, size: 0x8, addend: 0x0, symName: __ZNKSt3__16__lessIvvEclB8ue170006ImmEEbRKT_RKT0_, symObjAddr: 0x2BF0, symBinAddr: 0x1000034A0, symSize: 0x30 }
  - { offsetInCU: 0xD943, offset: 0xD943, size: 0x8, addend: 0x0, symName: __ZNKSt3__19allocatorINS_6vectorIcNS0_IcEEEEE8max_sizeB8ue170006Ev, symObjAddr: 0x2C20, symBinAddr: 0x1000034D0, symSize: 0x20 }
  - { offsetInCU: 0xD968, offset: 0xD968, size: 0x8, addend: 0x0, symName: __ZNKSt3__117__compressed_pairIPNS_6vectorIcNS_9allocatorIcEEEENS2_IS4_EEE6secondB8ue170006Ev, symObjAddr: 0x2C40, symBinAddr: 0x1000034F0, symSize: 0x20 }
  - { offsetInCU: 0xD98D, offset: 0xD98D, size: 0x8, addend: 0x0, symName: __ZNKSt3__122__compressed_pair_elemINS_9allocatorINS_6vectorIcNS1_IcEEEEEELi1ELb1EE5__getB8ue170006Ev, symObjAddr: 0x2C60, symBinAddr: 0x100003510, symSize: 0x10 }
  - { offsetInCU: 0xD9B2, offset: 0xD9B2, size: 0x8, addend: 0x0, symName: __ZNSt3__123__libcpp_numeric_limitsIlLb1EE3maxB8ue170006Ev, symObjAddr: 0x2C70, symBinAddr: 0x100003520, symSize: 0x10 }
  - { offsetInCU: 0xD9C6, offset: 0xD9C6, size: 0x8, addend: 0x0, symName: __ZNSt12length_errorC1B8ue170006EPKc, symObjAddr: 0x2CF0, symBinAddr: 0x1000035A0, symSize: 0x30 }
  - { offsetInCU: 0xD9FD, offset: 0xD9FD, size: 0x8, addend: 0x0, symName: __ZNSt12length_errorC2B8ue170006EPKc, symObjAddr: 0x2D20, symBinAddr: 0x1000035D0, symSize: 0x40 }
  - { offsetInCU: 0xDA34, offset: 0xDA34, size: 0x8, addend: 0x0, symName: __ZNSt3__114__split_bufferINS_6vectorIcNS_9allocatorIcEEEERNS2_IS4_EEEC2EmmS6_, symObjAddr: 0x2DB0, symBinAddr: 0x100003660, symSize: 0xC0 }
  - { offsetInCU: 0xDAA7, offset: 0xDAA7, size: 0x8, addend: 0x0, symName: __ZNSt3__117__compressed_pairIPNS_6vectorIcNS_9allocatorIcEEEERNS2_IS4_EEEC1B8ue170006IDnS7_EEOT_OT0_, symObjAddr: 0x2E70, symBinAddr: 0x100003720, symSize: 0x30 }
  - { offsetInCU: 0xDAFE, offset: 0xDAFE, size: 0x8, addend: 0x0, symName: __ZNSt3__114__split_bufferINS_6vectorIcNS_9allocatorIcEEEERNS2_IS4_EEE7__allocB8ue170006Ev, symObjAddr: 0x2EE0, symBinAddr: 0x100003790, symSize: 0x20 }
  - { offsetInCU: 0xDB23, offset: 0xDB23, size: 0x8, addend: 0x0, symName: __ZNSt3__114__split_bufferINS_6vectorIcNS_9allocatorIcEEEERNS2_IS4_EEE9__end_capB8ue170006Ev, symObjAddr: 0x2F00, symBinAddr: 0x1000037B0, symSize: 0x20 }
  - { offsetInCU: 0xDB48, offset: 0xDB48, size: 0x8, addend: 0x0, symName: __ZNSt3__117__compressed_pairIPNS_6vectorIcNS_9allocatorIcEEEERNS2_IS4_EEEC2B8ue170006IDnS7_EEOT_OT0_, symObjAddr: 0x2F20, symBinAddr: 0x1000037D0, symSize: 0x40 }
  - { offsetInCU: 0xDB9F, offset: 0xDB9F, size: 0x8, addend: 0x0, symName: __ZNSt3__122__compressed_pair_elemIRNS_9allocatorINS_6vectorIcNS1_IcEEEEEELi1ELb0EEC2B8ue170006IS6_vEEOT_, symObjAddr: 0x2F60, symBinAddr: 0x100003810, symSize: 0x20 }
  - { offsetInCU: 0xDBE0, offset: 0xDBE0, size: 0x8, addend: 0x0, symName: __ZNSt3__19allocatorINS_6vectorIcNS0_IcEEEEE8allocateB8ue170006Em, symObjAddr: 0x2F80, symBinAddr: 0x100003830, symSize: 0x50 }
  - { offsetInCU: 0xDC13, offset: 0xDC13, size: 0x8, addend: 0x0, symName: __ZNSt3__117__compressed_pairIPNS_6vectorIcNS_9allocatorIcEEEERNS2_IS4_EEE6secondB8ue170006Ev, symObjAddr: 0x3050, symBinAddr: 0x100003900, symSize: 0x20 }
  - { offsetInCU: 0xDC38, offset: 0xDC38, size: 0x8, addend: 0x0, symName: __ZNSt3__122__compressed_pair_elemIRNS_9allocatorINS_6vectorIcNS1_IcEEEEEELi1ELb0EE5__getB8ue170006Ev, symObjAddr: 0x3070, symBinAddr: 0x100003920, symSize: 0x20 }
  - { offsetInCU: 0xDC5D, offset: 0xDC5D, size: 0x8, addend: 0x0, symName: __ZNSt3__117__compressed_pairIPNS_6vectorIcNS_9allocatorIcEEEERNS2_IS4_EEE5firstB8ue170006Ev, symObjAddr: 0x3090, symBinAddr: 0x100003940, symSize: 0x20 }
  - { offsetInCU: 0xDC8C, offset: 0xDC8C, size: 0x8, addend: 0x0, symName: __ZNSt3__114__split_bufferINS_6vectorIcNS_9allocatorIcEEEERNS2_IS4_EEE21_ConstructTransactionC1B8ue170006EPPS4_m, symObjAddr: 0x30B0, symBinAddr: 0x100003960, symSize: 0x30 }
  - { offsetInCU: 0xDCD1, offset: 0xDCD1, size: 0x8, addend: 0x0, symName: __ZNSt3__114__split_bufferINS_6vectorIcNS_9allocatorIcEEEERNS2_IS4_EEE21_ConstructTransactionD1B8ue170006Ev, symObjAddr: 0x30E0, symBinAddr: 0x100003990, symSize: 0x20 }
  - { offsetInCU: 0xDCFA, offset: 0xDCFA, size: 0x8, addend: 0x0, symName: __ZNSt3__114__split_bufferINS_6vectorIcNS_9allocatorIcEEEERNS2_IS4_EEE21_ConstructTransactionC2B8ue170006EPPS4_m, symObjAddr: 0x3100, symBinAddr: 0x1000039B0, symSize: 0x40 }
  - { offsetInCU: 0xDD3F, offset: 0xDD3F, size: 0x8, addend: 0x0, symName: __ZNSt3__114__split_bufferINS_6vectorIcNS_9allocatorIcEEEERNS2_IS4_EEE21_ConstructTransactionD2B8ue170006Ev, symObjAddr: 0x3140, symBinAddr: 0x1000039F0, symSize: 0x20 }
  - { offsetInCU: 0xDD68, offset: 0xDD68, size: 0x8, addend: 0x0, symName: __ZNSt3__116reverse_iteratorIPNS_6vectorIcNS_9allocatorIcEEEEEC1B8ue170006ES5_, symObjAddr: 0x32E0, symBinAddr: 0x100003B90, symSize: 0x30 }
  - { offsetInCU: 0xDD9F, offset: 0xDD9F, size: 0x8, addend: 0x0, symName: __ZNKSt3__116reverse_iteratorIPNS_6vectorIcNS_9allocatorIcEEEEE4baseB8ue170006Ev, symObjAddr: 0x3310, symBinAddr: 0x100003BC0, symSize: 0x20 }
  - { offsetInCU: 0xDDC4, offset: 0xDDC4, size: 0x8, addend: 0x0, symName: __ZNKSt3__16vectorINS0_IcNS_9allocatorIcEEEENS1_IS3_EEE14__annotate_newB8ue170006Em, symObjAddr: 0x3370, symBinAddr: 0x100003C20, symSize: 0xA0 }
  - { offsetInCU: 0xDDF8, offset: 0xDDF8, size: 0x8, addend: 0x0, symName: __ZNSt3__129_AllocatorDestroyRangeReverseINS_9allocatorINS_6vectorIcNS1_IcEEEEEENS_16reverse_iteratorIPS4_EEEC1B8ue170006ERS5_RS8_SB_, symObjAddr: 0x3470, symBinAddr: 0x100003D20, symSize: 0x40 }
  - { offsetInCU: 0xDE4E, offset: 0xDE4E, size: 0x8, addend: 0x0, symName: __ZNSt3__116allocator_traitsINS_9allocatorINS_6vectorIcNS1_IcEEEEEEE9constructB8ue170006IS4_JS4_EvEEvRS5_PT_DpOT0_, symObjAddr: 0x34F0, symBinAddr: 0x100003DA0, symSize: 0x30 }
  - { offsetInCU: 0xDEA5, offset: 0xDEA5, size: 0x8, addend: 0x0, symName: __ZNKSt3__116reverse_iteratorIPNS_6vectorIcNS_9allocatorIcEEEEEdeB8ue170006Ev, symObjAddr: 0x3540, symBinAddr: 0x100003DF0, symSize: 0x30 }
  - { offsetInCU: 0xDED8, offset: 0xDED8, size: 0x8, addend: 0x0, symName: __ZNSt3__116reverse_iteratorIPNS_6vectorIcNS_9allocatorIcEEEEEppB8ue170006Ev, symObjAddr: 0x3570, symBinAddr: 0x100003E20, symSize: 0x20 }
  - { offsetInCU: 0xDEFD, offset: 0xDEFD, size: 0x8, addend: 0x0, symName: __ZNSt3__128__exception_guard_exceptionsINS_29_AllocatorDestroyRangeReverseINS_9allocatorINS_6vectorIcNS2_IcEEEEEENS_16reverse_iteratorIPS5_EEEEE10__completeB8ue170006Ev, symObjAddr: 0x3590, symBinAddr: 0x100003E40, symSize: 0x20 }
  - { offsetInCU: 0xDF22, offset: 0xDF22, size: 0x8, addend: 0x0, symName: __ZNSt3__128__exception_guard_exceptionsINS_29_AllocatorDestroyRangeReverseINS_9allocatorINS_6vectorIcNS2_IcEEEEEENS_16reverse_iteratorIPS5_EEEEED1B8ue170006Ev, symObjAddr: 0x35B0, symBinAddr: 0x100003E60, symSize: 0x20 }
  - { offsetInCU: 0xDF4B, offset: 0xDF4B, size: 0x8, addend: 0x0, symName: __ZNSt3__128__exception_guard_exceptionsINS_29_AllocatorDestroyRangeReverseINS_9allocatorINS_6vectorIcNS2_IcEEEEEENS_16reverse_iteratorIPS5_EEEEEC1B8ue170006ESA_, symObjAddr: 0x35D0, symBinAddr: 0x100003E80, symSize: 0x40 }
  - { offsetInCU: 0xDF82, offset: 0xDF82, size: 0x8, addend: 0x0, symName: __ZNSt3__128__exception_guard_exceptionsINS_29_AllocatorDestroyRangeReverseINS_9allocatorINS_6vectorIcNS2_IcEEEEEENS_16reverse_iteratorIPS5_EEEEEC2B8ue170006ESA_, symObjAddr: 0x3610, symBinAddr: 0x100003EC0, symSize: 0x30 }
  - { offsetInCU: 0xDFB9, offset: 0xDFB9, size: 0x8, addend: 0x0, symName: __ZNSt3__129_AllocatorDestroyRangeReverseINS_9allocatorINS_6vectorIcNS1_IcEEEEEENS_16reverse_iteratorIPS4_EEEC2B8ue170006ERS5_RS8_SB_, symObjAddr: 0x3640, symBinAddr: 0x100003EF0, symSize: 0x40 }
  - { offsetInCU: 0xE00F, offset: 0xE00F, size: 0x8, addend: 0x0, symName: __ZNSt3__19allocatorINS_6vectorIcNS0_IcEEEEE9constructB8ue170006IS3_JS3_EEEvPT_DpOT0_, symObjAddr: 0x3680, symBinAddr: 0x100003F30, symSize: 0x30 }
  - { offsetInCU: 0xE064, offset: 0xE064, size: 0x8, addend: 0x0, symName: __ZNSt3__16vectorIcNS_9allocatorIcEEEC1B8ue170006EOS3_, symObjAddr: 0x36B0, symBinAddr: 0x100003F60, symSize: 0x30 }
  - { offsetInCU: 0xE09E, offset: 0xE09E, size: 0x8, addend: 0x0, symName: __ZNSt3__16vectorIcNS_9allocatorIcEEEC2B8ue170006EOS3_, symObjAddr: 0x36E0, symBinAddr: 0x100003F90, symSize: 0xD0 }
  - { offsetInCU: 0xE0DD, offset: 0xE0DD, size: 0x8, addend: 0x0, symName: __ZNSt3__117__compressed_pairIPcNS_9allocatorIcEEEC1B8ue170006IDnS3_EEOT_OT0_, symObjAddr: 0x37B0, symBinAddr: 0x100004060, symSize: 0x30 }
  - { offsetInCU: 0xE134, offset: 0xE134, size: 0x8, addend: 0x0, symName: __ZNSt3__16vectorIcNS_9allocatorIcEEE9__end_capB8ue170006Ev, symObjAddr: 0x37E0, symBinAddr: 0x100004090, symSize: 0x20 }
  - { offsetInCU: 0xE159, offset: 0xE159, size: 0x8, addend: 0x0, symName: __ZNSt3__117__compressed_pairIPcNS_9allocatorIcEEEC2B8ue170006IDnS3_EEOT_OT0_, symObjAddr: 0x3800, symBinAddr: 0x1000040B0, symSize: 0x40 }
  - { offsetInCU: 0xE1B0, offset: 0xE1B0, size: 0x8, addend: 0x0, symName: __ZNSt3__122__compressed_pair_elemINS_9allocatorIcEELi1ELb1EEC2B8ue170006IS2_vEEOT_, symObjAddr: 0x3840, symBinAddr: 0x1000040F0, symSize: 0x10 }
  - { offsetInCU: 0xE1F1, offset: 0xE1F1, size: 0x8, addend: 0x0, symName: __ZNSt3__117__compressed_pairIPcNS_9allocatorIcEEE5firstB8ue170006Ev, symObjAddr: 0x3850, symBinAddr: 0x100004100, symSize: 0x20 }
  - { offsetInCU: 0xE216, offset: 0xE216, size: 0x8, addend: 0x0, symName: __ZNSt3__122__compressed_pair_elemIPcLi0ELb0EE5__getB8ue170006Ev, symObjAddr: 0x3870, symBinAddr: 0x100004120, symSize: 0x10 }
  - { offsetInCU: 0xE240, offset: 0xE240, size: 0x8, addend: 0x0, symName: __ZNSt3__119__to_address_helperINS_16reverse_iteratorIPNS_6vectorIcNS_9allocatorIcEEEEEEvE6__callB8ue170006ERKS7_, symObjAddr: 0x3880, symBinAddr: 0x100004130, symSize: 0x40 }
  - { offsetInCU: 0xE263, offset: 0xE263, size: 0x8, addend: 0x0, symName: __ZNKSt3__116reverse_iteratorIPNS_6vectorIcNS_9allocatorIcEEEEEptB8ue170006Ev, symObjAddr: 0x38C0, symBinAddr: 0x100004170, symSize: 0x20 }
  - { offsetInCU: 0xE288, offset: 0xE288, size: 0x8, addend: 0x0, symName: __ZNSt3__128__exception_guard_exceptionsINS_29_AllocatorDestroyRangeReverseINS_9allocatorINS_6vectorIcNS2_IcEEEEEENS_16reverse_iteratorIPS5_EEEEED2B8ue170006Ev, symObjAddr: 0x38E0, symBinAddr: 0x100004190, symSize: 0x40 }
  - { offsetInCU: 0xE2B1, offset: 0xE2B1, size: 0x8, addend: 0x0, symName: __ZNKSt3__129_AllocatorDestroyRangeReverseINS_9allocatorINS_6vectorIcNS1_IcEEEEEENS_16reverse_iteratorIPS4_EEEclB8ue170006Ev, symObjAddr: 0x3920, symBinAddr: 0x1000041D0, symSize: 0xF0 }
  - { offsetInCU: 0xE2D7, offset: 0xE2D7, size: 0x8, addend: 0x0, symName: __ZNSt3__116reverse_iteratorINS0_IPNS_6vectorIcNS_9allocatorIcEEEEEEEC1B8ue170006ES6_, symObjAddr: 0x3A80, symBinAddr: 0x100004330, symSize: 0x30 }
  - { offsetInCU: 0xE30E, offset: 0xE30E, size: 0x8, addend: 0x0, symName: __ZNSt3__116reverse_iteratorINS0_IPNS_6vectorIcNS_9allocatorIcEEEEEEEppB8ue170006Ev, symObjAddr: 0x3B20, symBinAddr: 0x1000043D0, symSize: 0x30 }
  - { offsetInCU: 0xE333, offset: 0xE333, size: 0x8, addend: 0x0, symName: __ZNKSt3__116reverse_iteratorINS0_IPNS_6vectorIcNS_9allocatorIcEEEEEEE4baseB8ue170006Ev, symObjAddr: 0x3B50, symBinAddr: 0x100004400, symSize: 0x20 }
  - { offsetInCU: 0xE35D, offset: 0xE35D, size: 0x8, addend: 0x0, symName: __ZNSt3__119__to_address_helperINS_16reverse_iteratorINS1_IPNS_6vectorIcNS_9allocatorIcEEEEEEEEvE6__callB8ue170006ERKS8_, symObjAddr: 0x3B70, symBinAddr: 0x100004420, symSize: 0x40 }
  - { offsetInCU: 0xE380, offset: 0xE380, size: 0x8, addend: 0x0, symName: __ZNKSt3__116reverse_iteratorINS0_IPNS_6vectorIcNS_9allocatorIcEEEEEEEptB8ue170006Ev, symObjAddr: 0x3BB0, symBinAddr: 0x100004460, symSize: 0x20 }
  - { offsetInCU: 0xE3A5, offset: 0xE3A5, size: 0x8, addend: 0x0, symName: __ZNKSt3__116reverse_iteratorINS0_IPNS_6vectorIcNS_9allocatorIcEEEEEEEdeB8ue170006Ev, symObjAddr: 0x3BD0, symBinAddr: 0x100004480, symSize: 0x40 }
  - { offsetInCU: 0xE3D8, offset: 0xE3D8, size: 0x8, addend: 0x0, symName: __ZNSt3__116reverse_iteratorIPNS_6vectorIcNS_9allocatorIcEEEEEmmB8ue170006Ev, symObjAddr: 0x3C10, symBinAddr: 0x1000044C0, symSize: 0x20 }
  - { offsetInCU: 0xE3FD, offset: 0xE3FD, size: 0x8, addend: 0x0, symName: __ZNSt3__116reverse_iteratorINS0_IPNS_6vectorIcNS_9allocatorIcEEEEEEEC2B8ue170006ES6_, symObjAddr: 0x3C30, symBinAddr: 0x1000044E0, symSize: 0x40 }
  - { offsetInCU: 0xE434, offset: 0xE434, size: 0x8, addend: 0x0, symName: __ZNSt3__116reverse_iteratorIPNS_6vectorIcNS_9allocatorIcEEEEEC2B8ue170006ES5_, symObjAddr: 0x3C70, symBinAddr: 0x100004520, symSize: 0x30 }
  - { offsetInCU: 0xE46B, offset: 0xE46B, size: 0x8, addend: 0x0, symName: __ZNSt3__114__split_bufferINS_6vectorIcNS_9allocatorIcEEEERNS2_IS4_EEED2Ev, symObjAddr: 0x3CA0, symBinAddr: 0x100004550, symSize: 0x70 }
  - { offsetInCU: 0xE496, offset: 0xE496, size: 0x8, addend: 0x0, symName: __ZNSt3__114__split_bufferINS_6vectorIcNS_9allocatorIcEEEERNS2_IS4_EEE5clearB8ue170006Ev, symObjAddr: 0x3D10, symBinAddr: 0x1000045C0, symSize: 0x20 }
  - { offsetInCU: 0xE4BB, offset: 0xE4BB, size: 0x8, addend: 0x0, symName: __ZNKSt3__114__split_bufferINS_6vectorIcNS_9allocatorIcEEEERNS2_IS4_EEE8capacityB8ue170006Ev, symObjAddr: 0x3D30, symBinAddr: 0x1000045E0, symSize: 0x40 }
  - { offsetInCU: 0xE4E0, offset: 0xE4E0, size: 0x8, addend: 0x0, symName: __ZNSt3__114__split_bufferINS_6vectorIcNS_9allocatorIcEEEERNS2_IS4_EEE17__destruct_at_endB8ue170006EPS4_, symObjAddr: 0x3D70, symBinAddr: 0x100004620, symSize: 0x30 }
  - { offsetInCU: 0xE512, offset: 0xE512, size: 0x8, addend: 0x0, symName: __ZNSt3__114__split_bufferINS_6vectorIcNS_9allocatorIcEEEERNS2_IS4_EEE17__destruct_at_endB8ue170006EPS4_NS_17integral_constantIbLb0EEE, symObjAddr: 0x3DA0, symBinAddr: 0x100004650, symSize: 0x80 }
  - { offsetInCU: 0xE552, offset: 0xE552, size: 0x8, addend: 0x0, symName: __ZNKSt3__114__split_bufferINS_6vectorIcNS_9allocatorIcEEEERNS2_IS4_EEE9__end_capB8ue170006Ev, symObjAddr: 0x3E20, symBinAddr: 0x1000046D0, symSize: 0x20 }
  - { offsetInCU: 0xE577, offset: 0xE577, size: 0x8, addend: 0x0, symName: __ZNKSt3__117__compressed_pairIPNS_6vectorIcNS_9allocatorIcEEEERNS2_IS4_EEE5firstB8ue170006Ev, symObjAddr: 0x3E40, symBinAddr: 0x1000046F0, symSize: 0x20 }
  - { offsetInCU: 0xE59C, offset: 0xE59C, size: 0x8, addend: 0x0, symName: __ZNKSt3__16vectorINS0_IcNS_9allocatorIcEEEENS1_IS3_EEE17__annotate_shrinkB8ue170006Em, symObjAddr: 0x3E60, symBinAddr: 0x100004710, symSize: 0xA0 }
  - { offsetInCU: 0xE5CF, offset: 0xE5CF, size: 0x8, addend: 0x0, symName: __ZNSt3__16vectorIcNS_9allocatorIcEEE8__appendEmRKc, symObjAddr: 0x3F00, symBinAddr: 0x1000047B0, symSize: 0x100 }
  - { offsetInCU: 0xE639, offset: 0xE639, size: 0x8, addend: 0x0, symName: __ZNSt3__16vectorIcNS_9allocatorIcEEE17__destruct_at_endB8ue170006EPc, symObjAddr: 0x4000, symBinAddr: 0x1000048B0, symSize: 0x50 }
  - { offsetInCU: 0xE67B, offset: 0xE67B, size: 0x8, addend: 0x0, symName: __ZNSt3__16vectorIcNS_9allocatorIcEEE18__construct_at_endEmRKc, symObjAddr: 0x4050, symBinAddr: 0x100004900, symSize: 0xC0 }
  - { offsetInCU: 0xE6FB, offset: 0xE6FB, size: 0x8, addend: 0x0, symName: __ZNKSt3__16vectorIcNS_9allocatorIcEEE11__recommendB8ue170006Em, symObjAddr: 0x4110, symBinAddr: 0x1000049C0, symSize: 0xA0 }
  - { offsetInCU: 0xE74F, offset: 0xE74F, size: 0x8, addend: 0x0, symName: __ZNSt3__114__split_bufferIcRNS_9allocatorIcEEEC1EmmS3_, symObjAddr: 0x41B0, symBinAddr: 0x100004A60, symSize: 0x40 }
  - { offsetInCU: 0xE7A3, offset: 0xE7A3, size: 0x8, addend: 0x0, symName: __ZNSt3__114__split_bufferIcRNS_9allocatorIcEEE18__construct_at_endEmRKc, symObjAddr: 0x41F0, symBinAddr: 0x100004AA0, symSize: 0xB0 }
  - { offsetInCU: 0xE7F5, offset: 0xE7F5, size: 0x8, addend: 0x0, symName: __ZNSt3__114__split_bufferIcRNS_9allocatorIcEEED1Ev, symObjAddr: 0x43C0, symBinAddr: 0x100004C70, symSize: 0x20 }
  - { offsetInCU: 0xE839, offset: 0xE839, size: 0x8, addend: 0x0, symName: __ZNSt3__16vectorIcNS_9allocatorIcEEE21_ConstructTransactionC1B8ue170006ERS3_m, symObjAddr: 0x43E0, symBinAddr: 0x100004C90, symSize: 0x30 }
  - { offsetInCU: 0xE880, offset: 0xE880, size: 0x8, addend: 0x0, symName: __ZNSt3__116allocator_traitsINS_9allocatorIcEEE9constructB8ue170006IcJRKcEvEEvRS2_PT_DpOT0_, symObjAddr: 0x4410, symBinAddr: 0x100004CC0, symSize: 0x30 }
  - { offsetInCU: 0xE8D7, offset: 0xE8D7, size: 0x8, addend: 0x0, symName: __ZNSt3__16vectorIcNS_9allocatorIcEEE21_ConstructTransactionD1B8ue170006Ev, symObjAddr: 0x4440, symBinAddr: 0x100004CF0, symSize: 0x20 }
  - { offsetInCU: 0xE900, offset: 0xE900, size: 0x8, addend: 0x0, symName: __ZNSt3__16vectorIcNS_9allocatorIcEEE21_ConstructTransactionC2B8ue170006ERS3_m, symObjAddr: 0x4460, symBinAddr: 0x100004D10, symSize: 0x40 }
  - { offsetInCU: 0xE947, offset: 0xE947, size: 0x8, addend: 0x0, symName: __ZNSt3__19allocatorIcE9constructB8ue170006IcJRKcEEEvPT_DpOT0_, symObjAddr: 0x44A0, symBinAddr: 0x100004D50, symSize: 0x20 }
  - { offsetInCU: 0xE99C, offset: 0xE99C, size: 0x8, addend: 0x0, symName: __ZNSt3__16vectorIcNS_9allocatorIcEEE21_ConstructTransactionD2B8ue170006Ev, symObjAddr: 0x44C0, symBinAddr: 0x100004D70, symSize: 0x20 }
  - { offsetInCU: 0xE9C4, offset: 0xE9C4, size: 0x8, addend: 0x0, symName: __ZNKSt3__16vectorIcNS_9allocatorIcEEE8max_sizeEv, symObjAddr: 0x44E0, symBinAddr: 0x100004D90, symSize: 0x60 }
  - { offsetInCU: 0xE9EB, offset: 0xE9EB, size: 0x8, addend: 0x0, symName: __ZNKSt3__16vectorIcNS_9allocatorIcEEE20__throw_length_errorB8ue170006Ev, symObjAddr: 0x4540, symBinAddr: 0x100004DF0, symSize: 0x20 }
  - { offsetInCU: 0xEA1A, offset: 0xEA1A, size: 0x8, addend: 0x0, symName: __ZNSt3__116allocator_traitsINS_9allocatorIcEEE8max_sizeB8ue170006IS2_vEEmRKS2_, symObjAddr: 0x4560, symBinAddr: 0x100004E10, symSize: 0x20 }
  - { offsetInCU: 0xEA48, offset: 0xEA48, size: 0x8, addend: 0x0, symName: __ZNKSt3__16vectorIcNS_9allocatorIcEEE7__allocB8ue170006Ev, symObjAddr: 0x4580, symBinAddr: 0x100004E30, symSize: 0x20 }
  - { offsetInCU: 0xEA6D, offset: 0xEA6D, size: 0x8, addend: 0x0, symName: __ZNKSt3__19allocatorIcE8max_sizeB8ue170006Ev, symObjAddr: 0x45A0, symBinAddr: 0x100004E50, symSize: 0x20 }
  - { offsetInCU: 0xEA92, offset: 0xEA92, size: 0x8, addend: 0x0, symName: __ZNKSt3__117__compressed_pairIPcNS_9allocatorIcEEE6secondB8ue170006Ev, symObjAddr: 0x45C0, symBinAddr: 0x100004E70, symSize: 0x20 }
  - { offsetInCU: 0xEAB7, offset: 0xEAB7, size: 0x8, addend: 0x0, symName: __ZNKSt3__122__compressed_pair_elemINS_9allocatorIcEELi1ELb1EE5__getB8ue170006Ev, symObjAddr: 0x45E0, symBinAddr: 0x100004E90, symSize: 0x10 }
  - { offsetInCU: 0xEADC, offset: 0xEADC, size: 0x8, addend: 0x0, symName: __ZNSt3__114__split_bufferIcRNS_9allocatorIcEEEC2EmmS3_, symObjAddr: 0x45F0, symBinAddr: 0x100004EA0, symSize: 0xC0 }
  - { offsetInCU: 0xEB4F, offset: 0xEB4F, size: 0x8, addend: 0x0, symName: __ZNSt3__117__compressed_pairIPcRNS_9allocatorIcEEEC1B8ue170006IDnS4_EEOT_OT0_, symObjAddr: 0x46B0, symBinAddr: 0x100004F60, symSize: 0x30 }
  - { offsetInCU: 0xEBA6, offset: 0xEBA6, size: 0x8, addend: 0x0, symName: __ZNSt3__114__split_bufferIcRNS_9allocatorIcEEE7__allocB8ue170006Ev, symObjAddr: 0x4720, symBinAddr: 0x100004FD0, symSize: 0x20 }
  - { offsetInCU: 0xEBCB, offset: 0xEBCB, size: 0x8, addend: 0x0, symName: __ZNSt3__114__split_bufferIcRNS_9allocatorIcEEE9__end_capB8ue170006Ev, symObjAddr: 0x4740, symBinAddr: 0x100004FF0, symSize: 0x20 }
  - { offsetInCU: 0xEBF0, offset: 0xEBF0, size: 0x8, addend: 0x0, symName: __ZNSt3__117__compressed_pairIPcRNS_9allocatorIcEEEC2B8ue170006IDnS4_EEOT_OT0_, symObjAddr: 0x4760, symBinAddr: 0x100005010, symSize: 0x40 }
  - { offsetInCU: 0xEC47, offset: 0xEC47, size: 0x8, addend: 0x0, symName: __ZNSt3__122__compressed_pair_elemIRNS_9allocatorIcEELi1ELb0EEC2B8ue170006IS3_vEEOT_, symObjAddr: 0x47A0, symBinAddr: 0x100005050, symSize: 0x20 }
  - { offsetInCU: 0xEC88, offset: 0xEC88, size: 0x8, addend: 0x0, symName: __ZNSt3__19allocatorIcE8allocateB8ue170006Em, symObjAddr: 0x47C0, symBinAddr: 0x100005070, symSize: 0x50 }
  - { offsetInCU: 0xECBB, offset: 0xECBB, size: 0x8, addend: 0x0, symName: __ZNSt3__117__compressed_pairIPcRNS_9allocatorIcEEE6secondB8ue170006Ev, symObjAddr: 0x4810, symBinAddr: 0x1000050C0, symSize: 0x20 }
  - { offsetInCU: 0xECE0, offset: 0xECE0, size: 0x8, addend: 0x0, symName: __ZNSt3__122__compressed_pair_elemIRNS_9allocatorIcEELi1ELb0EE5__getB8ue170006Ev, symObjAddr: 0x4830, symBinAddr: 0x1000050E0, symSize: 0x20 }
  - { offsetInCU: 0xED05, offset: 0xED05, size: 0x8, addend: 0x0, symName: __ZNSt3__117__compressed_pairIPcRNS_9allocatorIcEEE5firstB8ue170006Ev, symObjAddr: 0x4850, symBinAddr: 0x100005100, symSize: 0x20 }
  - { offsetInCU: 0xED34, offset: 0xED34, size: 0x8, addend: 0x0, symName: __ZNSt3__114__split_bufferIcRNS_9allocatorIcEEE21_ConstructTransactionC1B8ue170006EPPcm, symObjAddr: 0x4870, symBinAddr: 0x100005120, symSize: 0x30 }
  - { offsetInCU: 0xED79, offset: 0xED79, size: 0x8, addend: 0x0, symName: __ZNSt3__114__split_bufferIcRNS_9allocatorIcEEE21_ConstructTransactionD1B8ue170006Ev, symObjAddr: 0x48A0, symBinAddr: 0x100005150, symSize: 0x20 }
  - { offsetInCU: 0xEDA2, offset: 0xEDA2, size: 0x8, addend: 0x0, symName: __ZNSt3__114__split_bufferIcRNS_9allocatorIcEEE21_ConstructTransactionC2B8ue170006EPPcm, symObjAddr: 0x48C0, symBinAddr: 0x100005170, symSize: 0x40 }
  - { offsetInCU: 0xEDE7, offset: 0xEDE7, size: 0x8, addend: 0x0, symName: __ZNSt3__114__split_bufferIcRNS_9allocatorIcEEE21_ConstructTransactionD2B8ue170006Ev, symObjAddr: 0x4900, symBinAddr: 0x1000051B0, symSize: 0x20 }
  - { offsetInCU: 0xEE10, offset: 0xEE10, size: 0x8, addend: 0x0, symName: __ZNSt3__116reverse_iteratorIPcEC1B8ue170006ES1_, symObjAddr: 0x4990, symBinAddr: 0x100005240, symSize: 0x30 }
  - { offsetInCU: 0xEE47, offset: 0xEE47, size: 0x8, addend: 0x0, symName: __ZNKSt3__116reverse_iteratorIPcE4baseB8ue170006Ev, symObjAddr: 0x49C0, symBinAddr: 0x100005270, symSize: 0x20 }
  - { offsetInCU: 0xEE6C, offset: 0xEE6C, size: 0x8, addend: 0x0, symName: __ZNKSt3__16vectorIcNS_9allocatorIcEEE14__annotate_newB8ue170006Em, symObjAddr: 0x4A20, symBinAddr: 0x1000052D0, symSize: 0xA0 }
  - { offsetInCU: 0xEEC3, offset: 0xEEC3, size: 0x8, addend: 0x0, symName: __ZNKSt3__111__move_loopINS_17_ClassicAlgPolicyEEclB8ue170006INS_16reverse_iteratorIPcEES6_S6_EENS_4pairIT_T1_EES8_T0_S9_, symObjAddr: 0x4F00, symBinAddr: 0x1000057B0, symSize: 0xA0 }
  - { offsetInCU: 0xEF32, offset: 0xEF32, size: 0x8, addend: 0x0, symName: __ZNSt3__18_IterOpsINS_17_ClassicAlgPolicyEE11__iter_moveB8ue170006IRNS_16reverse_iteratorIPcEEEENS_9enable_ifIXsr12is_referenceIDTdeclsr3stdE7declvalIRT_EEEEE5valueEDTclsr3stdE4movedeclsr3stdE7declvalISA_EEEEE4typeEOS9_, symObjAddr: 0x5120, symBinAddr: 0x1000059D0, symSize: 0x20 }
  - { offsetInCU: 0xEF5E, offset: 0xEF5E, size: 0x8, addend: 0x0, symName: __ZNKSt3__116reverse_iteratorIPcEdeB8ue170006Ev, symObjAddr: 0x5140, symBinAddr: 0x1000059F0, symSize: 0x30 }
  - { offsetInCU: 0xEF91, offset: 0xEF91, size: 0x8, addend: 0x0, symName: __ZNSt3__116reverse_iteratorIPcEppB8ue170006Ev, symObjAddr: 0x5170, symBinAddr: 0x100005A20, symSize: 0x20 }
  - { offsetInCU: 0xEFB6, offset: 0xEFB6, size: 0x8, addend: 0x0, symName: __ZNSt3__18_IterOpsINS_17_ClassicAlgPolicyEE25__validate_iter_referenceB8ue170006IRNS_16reverse_iteratorIPcEEEEvv, symObjAddr: 0x5190, symBinAddr: 0x100005A40, symSize: 0x10 }
  - { offsetInCU: 0xEFD4, offset: 0xEFD4, size: 0x8, addend: 0x0, symName: __ZNSt3__118__unwrap_iter_implINS_16reverse_iteratorIPcEELb0EE8__unwrapB8ue170006ES3_, symObjAddr: 0x51A0, symBinAddr: 0x100005A50, symSize: 0x20 }
  - { offsetInCU: 0xEFFC, offset: 0xEFFC, size: 0x8, addend: 0x0, symName: __ZNSt3__14pairINS_16reverse_iteratorIPcEES3_EC1B8ue170006IS3_S3_LPv0EEEOT_OT0_, symObjAddr: 0x51C0, symBinAddr: 0x100005A70, symSize: 0x30 }
  - { offsetInCU: 0xF059, offset: 0xF059, size: 0x8, addend: 0x0, symName: __ZNSt3__14pairINS_16reverse_iteratorIPcEES3_EC2B8ue170006IS3_S3_LPv0EEEOT_OT0_, symObjAddr: 0x51F0, symBinAddr: 0x100005AA0, symSize: 0x40 }
  - { offsetInCU: 0xF0B6, offset: 0xF0B6, size: 0x8, addend: 0x0, symName: __ZNSt3__118__unwrap_iter_implINS_16reverse_iteratorIPcEELb0EE8__rewrapB8ue170006ES3_S3_, symObjAddr: 0x5230, symBinAddr: 0x100005AE0, symSize: 0x30 }
  - { offsetInCU: 0xF0E4, offset: 0xF0E4, size: 0x8, addend: 0x0, symName: __ZNSt3__116reverse_iteratorIPcEC2B8ue170006ES1_, symObjAddr: 0x5260, symBinAddr: 0x100005B10, symSize: 0x30 }
  - { offsetInCU: 0xF11B, offset: 0xF11B, size: 0x8, addend: 0x0, symName: __ZNSt3__114__split_bufferIcRNS_9allocatorIcEEED2Ev, symObjAddr: 0x5290, symBinAddr: 0x100005B40, symSize: 0x70 }
  - { offsetInCU: 0xF146, offset: 0xF146, size: 0x8, addend: 0x0, symName: __ZNSt3__114__split_bufferIcRNS_9allocatorIcEEE5clearB8ue170006Ev, symObjAddr: 0x5300, symBinAddr: 0x100005BB0, symSize: 0x20 }
  - { offsetInCU: 0xF16B, offset: 0xF16B, size: 0x8, addend: 0x0, symName: __ZNKSt3__114__split_bufferIcRNS_9allocatorIcEEE8capacityB8ue170006Ev, symObjAddr: 0x5320, symBinAddr: 0x100005BD0, symSize: 0x30 }
  - { offsetInCU: 0xF190, offset: 0xF190, size: 0x8, addend: 0x0, symName: __ZNSt3__114__split_bufferIcRNS_9allocatorIcEEE17__destruct_at_endB8ue170006EPc, symObjAddr: 0x5350, symBinAddr: 0x100005C00, symSize: 0x30 }
  - { offsetInCU: 0xF1C2, offset: 0xF1C2, size: 0x8, addend: 0x0, symName: __ZNSt3__114__split_bufferIcRNS_9allocatorIcEEE17__destruct_at_endB8ue170006EPcNS_17integral_constantIbLb0EEE, symObjAddr: 0x5380, symBinAddr: 0x100005C30, symSize: 0x80 }
  - { offsetInCU: 0xF202, offset: 0xF202, size: 0x8, addend: 0x0, symName: __ZNKSt3__114__split_bufferIcRNS_9allocatorIcEEE9__end_capB8ue170006Ev, symObjAddr: 0x5400, symBinAddr: 0x100005CB0, symSize: 0x20 }
  - { offsetInCU: 0xF227, offset: 0xF227, size: 0x8, addend: 0x0, symName: __ZNKSt3__117__compressed_pairIPcRNS_9allocatorIcEEE5firstB8ue170006Ev, symObjAddr: 0x5420, symBinAddr: 0x100005CD0, symSize: 0x20 }
  - { offsetInCU: 0xF24C, offset: 0xF24C, size: 0x8, addend: 0x0, symName: __ZNKSt3__16vectorIcNS_9allocatorIcEEE17__annotate_shrinkB8ue170006Em, symObjAddr: 0x5440, symBinAddr: 0x100005CF0, symSize: 0x90 }
  - { offsetInCU: 0xF280, offset: 0xF280, size: 0x8, addend: 0x0, symName: __ZNSt3__111char_traitsIcE6lengthB8ue170006EPKc, symObjAddr: 0x56C0, symBinAddr: 0x100005F70, symSize: 0x30 }
  - { offsetInCU: 0xF2C1, offset: 0xF2C1, size: 0x8, addend: 0x0, symName: __ZNKSt3__113basic_ostreamIcNS_11char_traitsIcEEE6sentrycvbB8ue170006Ev, symObjAddr: 0x56F0, symBinAddr: 0x100005FA0, symSize: 0x20 }
  - { offsetInCU: 0xF2E6, offset: 0xF2E6, size: 0x8, addend: 0x0, symName: __ZNSt3__119ostreambuf_iteratorIcNS_11char_traitsIcEEEC1B8ue170006ERNS_13basic_ostreamIcS2_EE, symObjAddr: 0x5930, symBinAddr: 0x1000061E0, symSize: 0x30 }
  - { offsetInCU: 0xF31C, offset: 0xF31C, size: 0x8, addend: 0x0, symName: __ZNKSt3__18ios_base5flagsB8ue170006Ev, symObjAddr: 0x5960, symBinAddr: 0x100006210, symSize: 0x20 }
  - { offsetInCU: 0xF342, offset: 0xF342, size: 0x8, addend: 0x0, symName: __ZNKSt3__19basic_iosIcNS_11char_traitsIcEEE4fillB8ue170006Ev, symObjAddr: 0x5980, symBinAddr: 0x100006230, symSize: 0x70 }
  - { offsetInCU: 0xF369, offset: 0xF369, size: 0x8, addend: 0x0, symName: __ZNKSt3__119ostreambuf_iteratorIcNS_11char_traitsIcEEE6failedB8ue170006Ev, symObjAddr: 0x59F0, symBinAddr: 0x1000062A0, symSize: 0x20 }
  - { offsetInCU: 0xF38E, offset: 0xF38E, size: 0x8, addend: 0x0, symName: __ZNSt3__19basic_iosIcNS_11char_traitsIcEEE8setstateB8ue170006Ej, symObjAddr: 0x5A10, symBinAddr: 0x1000062C0, symSize: 0x30 }
  - { offsetInCU: 0xF3C1, offset: 0xF3C1, size: 0x8, addend: 0x0, symName: __ZNKSt3__18ios_base5widthB8ue170006Ev, symObjAddr: 0x5A40, symBinAddr: 0x1000062F0, symSize: 0x20 }
  - { offsetInCU: 0xF3E8, offset: 0xF3E8, size: 0x8, addend: 0x0, symName: __ZNSt3__115basic_streambufIcNS_11char_traitsIcEEE5sputnB8ue170006EPKcl, symObjAddr: 0x5A60, symBinAddr: 0x100006310, symSize: 0x30 }
  - { offsetInCU: 0xF429, offset: 0xF429, size: 0x8, addend: 0x0, symName: __ZNSt3__112basic_stringIcNS_11char_traitsIcEENS_9allocatorIcEEEC1B8ue170006Emc, symObjAddr: 0x5A90, symBinAddr: 0x100006340, symSize: 0x30 }
  - { offsetInCU: 0xF470, offset: 0xF470, size: 0x8, addend: 0x0, symName: __ZNKSt3__112basic_stringIcNS_11char_traitsIcEENS_9allocatorIcEEE4dataB8ue170006Ev, symObjAddr: 0x5AC0, symBinAddr: 0x100006370, symSize: 0x30 }
  - { offsetInCU: 0xF494, offset: 0xF494, size: 0x8, addend: 0x0, symName: __ZNSt3__18ios_base5widthB8ue170006El, symObjAddr: 0x5AF0, symBinAddr: 0x1000063A0, symSize: 0x30 }
  - { offsetInCU: 0xF4D9, offset: 0xF4D9, size: 0x8, addend: 0x0, symName: __ZNSt3__112basic_stringIcNS_11char_traitsIcEENS_9allocatorIcEEEC2B8ue170006Emc, symObjAddr: 0x5B20, symBinAddr: 0x1000063D0, symSize: 0x50 }
  - { offsetInCU: 0xF520, offset: 0xF520, size: 0x8, addend: 0x0, symName: __ZNSt3__117__compressed_pairINS_12basic_stringIcNS_11char_traitsIcEENS_9allocatorIcEEE5__repES5_EC1B8ue170006INS_18__default_init_tagESA_EEOT_OT0_, symObjAddr: 0x5B70, symBinAddr: 0x100006420, symSize: 0x30 }
  - { offsetInCU: 0xF577, offset: 0xF577, size: 0x8, addend: 0x0, symName: __ZNSt3__117__compressed_pairINS_12basic_stringIcNS_11char_traitsIcEENS_9allocatorIcEEE5__repES5_EC2B8ue170006INS_18__default_init_tagESA_EEOT_OT0_, symObjAddr: 0x5BA0, symBinAddr: 0x100006450, symSize: 0x30 }
  - { offsetInCU: 0xF5CE, offset: 0xF5CE, size: 0x8, addend: 0x0, symName: __ZNSt3__122__compressed_pair_elemINS_12basic_stringIcNS_11char_traitsIcEENS_9allocatorIcEEE5__repELi0ELb0EEC2B8ue170006ENS_18__default_init_tagE, symObjAddr: 0x5BD0, symBinAddr: 0x100006480, symSize: 0x10 }
  - { offsetInCU: 0xF602, offset: 0xF602, size: 0x8, addend: 0x0, symName: __ZNKSt3__112basic_stringIcNS_11char_traitsIcEENS_9allocatorIcEEE13__get_pointerB8ue170006Ev, symObjAddr: 0x5BF0, symBinAddr: 0x1000064A0, symSize: 0x50 }
  - { offsetInCU: 0xF627, offset: 0xF627, size: 0x8, addend: 0x0, symName: __ZNKSt3__112basic_stringIcNS_11char_traitsIcEENS_9allocatorIcEEE9__is_longB8ue170006Ev, symObjAddr: 0x5C40, symBinAddr: 0x1000064F0, symSize: 0x30 }
  - { offsetInCU: 0xF64C, offset: 0xF64C, size: 0x8, addend: 0x0, symName: __ZNKSt3__112basic_stringIcNS_11char_traitsIcEENS_9allocatorIcEEE18__get_long_pointerB8ue170006Ev, symObjAddr: 0x5C70, symBinAddr: 0x100006520, symSize: 0x20 }
  - { offsetInCU: 0xF671, offset: 0xF671, size: 0x8, addend: 0x0, symName: __ZNKSt3__112basic_stringIcNS_11char_traitsIcEENS_9allocatorIcEEE19__get_short_pointerB8ue170006Ev, symObjAddr: 0x5C90, symBinAddr: 0x100006540, symSize: 0x30 }
  - { offsetInCU: 0xF696, offset: 0xF696, size: 0x8, addend: 0x0, symName: __ZNKSt3__117__compressed_pairINS_12basic_stringIcNS_11char_traitsIcEENS_9allocatorIcEEE5__repES5_E5firstB8ue170006Ev, symObjAddr: 0x5CC0, symBinAddr: 0x100006570, symSize: 0x20 }
  - { offsetInCU: 0xF6BB, offset: 0xF6BB, size: 0x8, addend: 0x0, symName: __ZNKSt3__122__compressed_pair_elemINS_12basic_stringIcNS_11char_traitsIcEENS_9allocatorIcEEE5__repELi0ELb0EE5__getB8ue170006Ev, symObjAddr: 0x5CE0, symBinAddr: 0x100006590, symSize: 0x10 }
  - { offsetInCU: 0xF6E0, offset: 0xF6E0, size: 0x8, addend: 0x0, symName: __ZNSt3__114pointer_traitsIPKcE10pointer_toB8ue170006ERS1_, symObjAddr: 0x5CF0, symBinAddr: 0x1000065A0, symSize: 0x10 }
  - { offsetInCU: 0xF703, offset: 0xF703, size: 0x8, addend: 0x0, symName: __ZNSt3__119ostreambuf_iteratorIcNS_11char_traitsIcEEEC2B8ue170006ERNS_13basic_ostreamIcS2_EE, symObjAddr: 0x5D00, symBinAddr: 0x1000065B0, symSize: 0x50 }
  - { offsetInCU: 0xF739, offset: 0xF739, size: 0x8, addend: 0x0, symName: __ZNKSt3__19basic_iosIcNS_11char_traitsIcEEE5rdbufB8ue170006Ev, symObjAddr: 0x5D50, symBinAddr: 0x100006600, symSize: 0x20 }
  - { offsetInCU: 0xF760, offset: 0xF760, size: 0x8, addend: 0x0, symName: __ZNKSt3__18ios_base5rdbufB8ue170006Ev, symObjAddr: 0x5D70, symBinAddr: 0x100006620, symSize: 0x20 }
  - { offsetInCU: 0xF785, offset: 0xF785, size: 0x8, addend: 0x0, symName: __ZNSt3__111char_traitsIcE11eq_int_typeB8ue170006Eii, symObjAddr: 0x5D90, symBinAddr: 0x100006640, symSize: 0x20 }
  - { offsetInCU: 0xF7B8, offset: 0xF7B8, size: 0x8, addend: 0x0, symName: __ZNSt3__111char_traitsIcE3eofB8ue170006Ev, symObjAddr: 0x5DB0, symBinAddr: 0x100006660, symSize: 0x10 }
  - { offsetInCU: 0xF7CB, offset: 0xF7CB, size: 0x8, addend: 0x0, symName: __ZNKSt3__19basic_iosIcNS_11char_traitsIcEEE5widenB8ue170006Ec, symObjAddr: 0x5DC0, symBinAddr: 0x100006670, symSize: 0x80 }
  - { offsetInCU: 0xF838, offset: 0xF838, size: 0x8, addend: 0x0, symName: __ZNKSt3__15ctypeIcE5widenB8ue170006Ec, symObjAddr: 0x5E70, symBinAddr: 0x100006720, symSize: 0x30 }
  - { offsetInCU: 0xF86B, offset: 0xF86B, size: 0x8, addend: 0x0, symName: __ZNSt3__18ios_base8setstateB8ue170006Ej, symObjAddr: 0x5EA0, symBinAddr: 0x100006750, symSize: 0x30 }
  - { offsetInCU: 0xF8A1, offset: 0xF8A1, size: 0x8, addend: 0x0, symName: __ZNSt3__112basic_stringIcNS_11char_traitsIcEENS_9allocatorIcEEEC2B8ue170006ILi0EEEPKc, symObjAddr: 0x5EF0, symBinAddr: 0x1000067A0, symSize: 0x50 }
  - { offsetInCU: 0xF8DF, offset: 0xF8DF, size: 0x8, addend: 0x0, symName: __ZNKSt3__112basic_stringIcNS_11char_traitsIcEENS_9allocatorIcEEE4sizeB8ue170006Ev, symObjAddr: 0x5F40, symBinAddr: 0x1000067F0, symSize: 0x50 }
  - { offsetInCU: 0xF904, offset: 0xF904, size: 0x8, addend: 0x0, symName: __ZNKSt3__112basic_stringIcNS_11char_traitsIcEENS_9allocatorIcEEE15__get_long_sizeB8ue170006Ev, symObjAddr: 0x5F90, symBinAddr: 0x100006840, symSize: 0x20 }
  - { offsetInCU: 0xF929, offset: 0xF929, size: 0x8, addend: 0x0, symName: __ZNKSt3__112basic_stringIcNS_11char_traitsIcEENS_9allocatorIcEEE16__get_short_sizeB8ue170006Ev, symObjAddr: 0x5FB0, symBinAddr: 0x100006860, symSize: 0x23 }
...
